; ModuleID = '9/1372.c'
source_filename = "9/1372.c"
target datalayout = "e-m:e-p270:32:32-p271:32:32-p272:64:64-i64:64-f80:128-n8:16:32:64-S128"
target triple = "x86_64-pc-linux-gnu"

%struct.patient = type { [10 x i8], i32 }

@.str = private unnamed_addr constant [3 x i8] c"%d\00", align 1
@.str.1 = private unnamed_addr constant [6 x i8] c"%s %d\00", align 1
@pt = common dso_local global [100 x %struct.patient] zeroinitializer, align 16
@.str.2 = private unnamed_addr constant [4 x i8] c"%s\0A\00", align 1

; Function Attrs: noinline nounwind uwtable
define dso_local i32 @main() #0 {
  %1 = alloca i32, align 4
  %2 = alloca i32, align 4
  %3 = alloca i32, align 4
  %4 = alloca i32, align 4
  %5 = alloca i32, align 4
  %6 = alloca i32, align 4
  %7 = alloca i32, align 4
  %8 = alloca [100 x i32], align 16
  %9 = alloca [100 x i32], align 16
  store i32 0, i32* %1, align 4
  %10 = call i32 (i8*, ...) @__isoc99_scanf(i8* getelementptr inbounds ([3 x i8], [3 x i8]* @.str, i64 0, i64 0), i32* %2)
  store i32 0, i32* %4, align 4
  store i32 0, i32* %5, align 4
  store i32 0, i32* %3, align 4
  br label %11

11:                                               ; preds = %46, %0
  %12 = load i32, i32* %3, align 4
  %13 = load i32, i32* %2, align 4
  %14 = icmp slt i32 %12, %13
  br i1 %14, label %15, label %49

15:                                               ; preds = %11
  %16 = load i32, i32* %3, align 4
  %17 = sext i32 %16 to i64
  %18 = getelementptr inbounds [100 x %struct.patient], [100 x %struct.patient]* @pt, i64 0, i64 %17
  %19 = getelementptr inbounds %struct.patient, %struct.patient* %18, i32 0, i32 0
  %20 = load i32, i32* %3, align 4
  %21 = sext i32 %20 to i64
  %22 = getelementptr inbounds [100 x %struct.patient], [100 x %struct.patient]* @pt, i64 0, i64 %21
  %23 = getelementptr inbounds %struct.patient, %struct.patient* %22, i32 0, i32 1
  %24 = call i32 (i8*, ...) @__isoc99_scanf(i8* getelementptr inbounds ([6 x i8], [6 x i8]* @.str.1, i64 0, i64 0), [10 x i8]* %19, i32* %23)
  %25 = load i32, i32* %3, align 4
  %26 = sext i32 %25 to i64
  %27 = getelementptr inbounds [100 x %struct.patient], [100 x %struct.patient]* @pt, i64 0, i64 %26
  %28 = getelementptr inbounds %struct.patient, %struct.patient* %27, i32 0, i32 1
  %29 = load i32, i32* %28, align 4
  %30 = icmp sge i32 %29, 60
  br i1 %30, label %31, label %38

31:                                               ; preds = %15
  %32 = load i32, i32* %3, align 4
  %33 = load i32, i32* %4, align 4
  %34 = sext i32 %33 to i64
  %35 = getelementptr inbounds [100 x i32], [100 x i32]* %8, i64 0, i64 %34
  store i32 %32, i32* %35, align 4
  %36 = load i32, i32* %4, align 4
  %37 = add nsw i32 %36, 1
  store i32 %37, i32* %4, align 4
  br label %45

38:                                               ; preds = %15
  %39 = load i32, i32* %3, align 4
  %40 = load i32, i32* %5, align 4
  %41 = sext i32 %40 to i64
  %42 = getelementptr inbounds [100 x i32], [100 x i32]* %9, i64 0, i64 %41
  store i32 %39, i32* %42, align 4
  %43 = load i32, i32* %5, align 4
  %44 = add nsw i32 %43, 1
  store i32 %44, i32* %5, align 4
  br label %45

45:                                               ; preds = %38, %31
  br label %46

46:                                               ; preds = %45
  %47 = load i32, i32* %3, align 4
  %48 = add nsw i32 %47, 1
  store i32 %48, i32* %3, align 4
  br label %11

49:                                               ; preds = %11
  store i32 0, i32* %3, align 4
  br label %50

50:                                               ; preds = %102, %49
  %51 = load i32, i32* %3, align 4
  %52 = load i32, i32* %4, align 4
  %53 = icmp slt i32 %51, %52
  br i1 %53, label %54, label %105

54:                                               ; preds = %50
  store i32 0, i32* %7, align 4
  br label %55

55:                                               ; preds = %98, %54
  %56 = load i32, i32* %7, align 4
  %57 = load i32, i32* %4, align 4
  %58 = sub nsw i32 %57, 1
  %59 = icmp slt i32 %56, %58
  br i1 %59, label %60, label %101

60:                                               ; preds = %55
  %61 = load i32, i32* %7, align 4
  %62 = sext i32 %61 to i64
  %63 = getelementptr inbounds [100 x i32], [100 x i32]* %8, i64 0, i64 %62
  %64 = load i32, i32* %63, align 4
  %65 = sext i32 %64 to i64
  %66 = getelementptr inbounds [100 x %struct.patient], [100 x %struct.patient]* @pt, i64 0, i64 %65
  %67 = getelementptr inbounds %struct.patient, %struct.patient* %66, i32 0, i32 1
  %68 = load i32, i32* %67, align 4
  %69 = load i32, i32* %7, align 4
  %70 = add nsw i32 %69, 1
  %71 = sext i32 %70 to i64
  %72 = getelementptr inbounds [100 x i32], [100 x i32]* %8, i64 0, i64 %71
  %73 = load i32, i32* %72, align 4
  %74 = sext i32 %73 to i64
  %75 = getelementptr inbounds [100 x %struct.patient], [100 x %struct.patient]* @pt, i64 0, i64 %74
  %76 = getelementptr inbounds %struct.patient, %struct.patient* %75, i32 0, i32 1
  %77 = load i32, i32* %76, align 4
  %78 = icmp slt i32 %68, %77
  br i1 %78, label %79, label %97

79:                                               ; preds = %60
  %80 = load i32, i32* %7, align 4
  %81 = sext i32 %80 to i64
  %82 = getelementptr inbounds [100 x i32], [100 x i32]* %8, i64 0, i64 %81
  %83 = load i32, i32* %82, align 4
  store i32 %83, i32* %6, align 4
  %84 = load i32, i32* %7, align 4
  %85 = add nsw i32 %84, 1
  %86 = sext i32 %85 to i64
  %87 = getelementptr inbounds [100 x i32], [100 x i32]* %8, i64 0, i64 %86
  %88 = load i32, i32* %87, align 4
  %89 = load i32, i32* %7, align 4
  %90 = sext i32 %89 to i64
  %91 = getelementptr inbounds [100 x i32], [100 x i32]* %8, i64 0, i64 %90
  store i32 %88, i32* %91, align 4
  %92 = load i32, i32* %6, align 4
  %93 = load i32, i32* %7, align 4
  %94 = add nsw i32 %93, 1
  %95 = sext i32 %94 to i64
  %96 = getelementptr inbounds [100 x i32], [100 x i32]* %8, i64 0, i64 %95
  store i32 %92, i32* %96, align 4
  br label %97

97:                                               ; preds = %79, %60
  br label %98

98:                                               ; preds = %97
  %99 = load i32, i32* %7, align 4
  %100 = add nsw i32 %99, 1
  store i32 %100, i32* %7, align 4
  br label %55

101:                                              ; preds = %55
  br label %102

102:                                              ; preds = %101
  %103 = load i32, i32* %3, align 4
  %104 = add nsw i32 %103, 1
  store i32 %104, i32* %3, align 4
  br label %50

105:                                              ; preds = %50
  store i32 0, i32* %3, align 4
  br label %106

106:                                              ; preds = %120, %105
  %107 = load i32, i32* %3, align 4
  %108 = load i32, i32* %4, align 4
  %109 = icmp slt i32 %107, %108
  br i1 %109, label %110, label %123

110:                                              ; preds = %106
  %111 = load i32, i32* %3, align 4
  %112 = sext i32 %111 to i64
  %113 = getelementptr inbounds [100 x i32], [100 x i32]* %8, i64 0, i64 %112
  %114 = load i32, i32* %113, align 4
  %115 = sext i32 %114 to i64
  %116 = getelementptr inbounds [100 x %struct.patient], [100 x %struct.patient]* @pt, i64 0, i64 %115
  %117 = getelementptr inbounds %struct.patient, %struct.patient* %116, i32 0, i32 0
  %118 = getelementptr inbounds [10 x i8], [10 x i8]* %117, i64 0, i64 0
  %119 = call i32 (i8*, ...) @printf(i8* getelementptr inbounds ([4 x i8], [4 x i8]* @.str.2, i64 0, i64 0), i8* %118)
  br label %120

120:                                              ; preds = %110
  %121 = load i32, i32* %3, align 4
  %122 = add nsw i32 %121, 1
  store i32 %122, i32* %3, align 4
  br label %106

123:                                              ; preds = %106
  store i32 0, i32* %3, align 4
  br label %124

124:                                              ; preds = %138, %123
  %125 = load i32, i32* %3, align 4
  %126 = load i32, i32* %5, align 4
  %127 = icmp slt i32 %125, %126
  br i1 %127, label %128, label %141

128:                                              ; preds = %124
  %129 = load i32, i32* %3, align 4
  %130 = sext i32 %129 to i64
  %131 = getelementptr inbounds [100 x i32], [100 x i32]* %9, i64 0, i64 %130
  %132 = load i32, i32* %131, align 4
  %133 = sext i32 %132 to i64
  %134 = getelementptr inbounds [100 x %struct.patient], [100 x %struct.patient]* @pt, i64 0, i64 %133
  %135 = getelementptr inbounds %struct.patient, %struct.patient* %134, i32 0, i32 0
  %136 = getelementptr inbounds [10 x i8], [10 x i8]* %135, i64 0, i64 0
  %137 = call i32 (i8*, ...) @printf(i8* getelementptr inbounds ([4 x i8], [4 x i8]* @.str.2, i64 0, i64 0), i8* %136)
  br label %138

138:                                              ; preds = %128
  %139 = load i32, i32* %3, align 4
  %140 = add nsw i32 %139, 1
  store i32 %140, i32* %3, align 4
  br label %124

141:                                              ; preds = %124
  %142 = load i32, i32* %1, align 4
  ret i32 %142
}

declare dso_local i32 @__isoc99_scanf(i8*, ...) #1

declare dso_local i32 @printf(i8*, ...) #1


!llvm.module.flags = !{!0}
!llvm.ident = !{!1}

!0 = !{i32 1, !"wchar_size", i32 4}
!1 = !{!"clang version 10.0.0-4ubuntu1 "}
